; Function Attrs: mustprogress uwtable
define dso_local void @_ZNSt3__14__fs10filesystem14__current_pathERKNS1_4pathEPNS_10error_codeE(ptr noundef nonnull align 8 dereferenceable(24) %0, ptr noundef %1) local_unnamed_addr #0 {
  %3 = alloca %"struct.std::__1::__fs::filesystem::detail::ErrorHandler.1", align 8
  %4 = alloca %"class.std::__1::error_code", align 8
  call void @llvm.lifetime.start.p0(i64 32, ptr nonnull %3) #28
  store ptr @.str.9, ptr %3, align 8, !tbaa !32
  %5 = getelementptr inbounds nuw i8, ptr %3, i64 8
  store ptr %1, ptr %5, align 8, !tbaa !34
  %6 = getelementptr inbounds nuw i8, ptr %3, i64 16
  store ptr %0, ptr %6, align 8, !tbaa !35
  %7 = getelementptr inbounds nuw i8, ptr %3, i64 24
  store ptr null, ptr %7, align 8, !tbaa !36
  %.not.i = icmp eq ptr %1, null
  br i1 %.not.i, label %_ZNSt3__14__fs10filesystem6detail12ErrorHandlerIvEC2B8ne210000EPKcPNS_10error_codeEPKNS1_4pathESB_.exit, label %8

8:                                                ; preds = %2
  store i32 0, ptr %1, align 8, !tbaa !8
  %9 = tail call noundef nonnull align 8 dereferenceable(8) ptr @_ZNSt3__115system_categoryEv() #30
  %10 = getelementptr inbounds nuw i8, ptr %1, i64 8
  store ptr %9, ptr %10, align 8, !tbaa !13
  br label %_ZNSt3__14__fs10filesystem6detail12ErrorHandlerIvEC2B8ne210000EPKcPNS_10error_codeEPKNS1_4pathESB_.exit

_ZNSt3__14__fs10filesystem6detail12ErrorHandlerIvEC2B8ne210000EPKcPNS_10error_codeEPKNS1_4pathESB_.exit: ; preds = %2, %8
  %11 = load i8, ptr %0, align 8
  %12 = and i8 %11, 1
  %.not.i.i.i.i = icmp eq i8 %12, 0
  %13 = getelementptr inbounds nuw i8, ptr %0, i64 16
  %14 = load ptr, ptr %13, align 8
  %15 = getelementptr inbounds nuw i8, ptr %0, i64 1
  %16 = select i1 %.not.i.i.i.i, ptr %15, ptr %14
  %17 = tail call i32 @chdir(ptr noundef %16) #28
  %18 = icmp eq i32 %17, -1
  br i1 %18, label %19, label %24

19:                                               ; preds = %_ZNSt3__14__fs10filesystem6detail12ErrorHandlerIvEC2B8ne210000EPKcPNS_10error_codeEPKNS1_4pathESB_.exit
  call void @llvm.lifetime.start.p0(i64 16, ptr nonnull %4) #28
  %20 = tail call ptr @__errno_location() #30
  %21 = load i32, ptr %20, align 4, !tbaa !26
  %22 = tail call noundef nonnull align 8 dereferenceable(8) ptr @_ZNSt3__116generic_categoryEv() #30
  store i32 %21, ptr %4, align 8
  %23 = getelementptr inbounds nuw i8, ptr %4, i64 8
  store ptr %22, ptr %23, align 8
  call void @_ZNKSt3__14__fs10filesystem6detail12ErrorHandlerIvE6reportB8ne210000ERKNS_10error_codeE(ptr noundef nonnull align 8 dereferenceable(32) %3, ptr noundef nonnull align 8 dereferenceable(16) %4)
  call void @llvm.lifetime.end.p0(i64 16, ptr nonnull %4) #28
  br label %24

24:                                               ; preds = %19, %_ZNSt3__14__fs10filesystem6detail12ErrorHandlerIvEC2B8ne210000EPKcPNS_10error_codeEPKNS1_4pathESB_.exit
  call void @llvm.lifetime.end.p0(i64 32, ptr nonnull %3) #28
  ret void
}